target datalayout = "e-m:e-p270:32:32-p271:32:32-p272:64:64-i64:64-i128:128-f80:128-n8:16:32:64-S128"
target triple = "x86_64-unknown-linux-gnu"

%"class.absl::random_internal::RandenPool.19" = type { i8 }

; Function Attrs: mustprogress uwtable
define internal void @_ZN12_GLOBAL__N_136PoolURBGTypedTest_URBGInterface_TestIN4absl15random_internal10RandenPoolImEEE8TestBodyEv(ptr noundef nonnull align 8 dereferenceable(16) %this) unnamed_addr #4 align 2 {
entry:
  %this.addr = alloca ptr, align 8
  %e = alloca %"class.absl::random_internal::RandenPool.19", align 1
  %x = alloca %"class.absl::random_internal::RandenPool.19", align 1
  %u0 = alloca %"class.absl::random_internal::RandenPool.19", align 1
  %u1 = alloca %"class.absl::random_internal::RandenPool.19", align 1
  store ptr %this, ptr %this.addr, align 8
  call void @_ZN4absl15random_internal10RandenPoolImEC1Ev(ptr noundef nonnull align 1 dereferenceable(1) %e)
  call void @_ZN4absl15random_internal10RandenPoolImEC1Ev(ptr noundef nonnull align 1 dereferenceable(1) %x)
  %call = call noundef i64 @_ZN4absl15random_internal10RandenPoolImEclEv(ptr noundef nonnull align 1 dereferenceable(1) %e)
  %call2 = call noundef i64 @_ZN4absl15random_internal10RandenPoolImEclEv(ptr noundef nonnull align 1 dereferenceable(1) %u0)
  %call3 = call noundef i64 @_ZN4absl15random_internal10RandenPoolImEclEv(ptr noundef nonnull align 1 dereferenceable(1) %u1)
  ret void
}